; Function Attrs: mustprogress uwtable
define dso_local noundef range(i64 -1152921504606846976, 1152921504606846976) i64 @_ZN4Luau16OverloadResolver7indexofENS0_8AnalysisE(ptr noundef nonnull readonly align 8 captures(none) dereferenceable(464) %0, i32 noundef %1) local_unnamed_addr #4 align 2 personality ptr @__gxx_personality_v0 {
  %3 = alloca %"class.std::__cxx11::basic_string", align 8
  %4 = alloca %"class.std::allocator.65", align 1
  %5 = icmp ult i32 %1, 4
  br i1 %5, label %switch.lookup, label %6

6:                                                ; preds = %2
  %7 = getelementptr inbounds nuw i8, ptr %0, i64 48
  %8 = load ptr, ptr %7, align 8, !tbaa !206
  call void @llvm.lifetime.start.p0(i64 32, ptr nonnull %3) #27
  call void @llvm.lifetime.start.p0(i64 1, ptr nonnull %4) #27
  call void @_ZNSt7__cxx1112basic_stringIcSt11char_traitsIcESaIcEEC2IS3_EEPKcRKS3_(ptr noundef nonnull align 8 dereferenceable(32) %3, ptr noundef nonnull @.str.58, ptr noundef nonnull align 1 dereferenceable(1) %4)
  invoke void @_ZNK4Luau21InternalErrorReporter3iceERKNSt7__cxx1112basic_stringIcSt11char_traitsIcESaIcEEE(ptr noundef nonnull align 8 dereferenceable(64) %8, ptr noundef nonnull align 8 dereferenceable(32) %3) #28
          to label %9 unwind label %10

9:                                                ; preds = %6
  unreachable

10:                                               ; preds = %6
  %11 = landingpad { ptr, i32 }
          cleanup
  %12 = load ptr, ptr %3, align 8, !tbaa !177
  %13 = getelementptr inbounds nuw i8, ptr %3, i64 16
  %14 = icmp eq ptr %12, %13
  br i1 %14, label %_ZNKSt7__cxx1112basic_stringIcSt11char_traitsIcESaIcEE11_M_is_localEv.exit.thread.i.i, label %_ZNKSt7__cxx1112basic_stringIcSt11char_traitsIcESaIcEE11_M_is_localEv.exit.i.i

_ZNKSt7__cxx1112basic_stringIcSt11char_traitsIcESaIcEE11_M_is_localEv.exit.thread.i.i: ; preds = %10
  %15 = getelementptr inbounds nuw i8, ptr %3, i64 8
  %16 = load i64, ptr %15, align 8, !tbaa !181
  %17 = icmp ult i64 %16, 16
  call void @llvm.assume(i1 %17)
  br label %_ZNSt7__cxx1112basic_stringIcSt11char_traitsIcESaIcEED2Ev.exit

_ZNKSt7__cxx1112basic_stringIcSt11char_traitsIcESaIcEE11_M_is_localEv.exit.i.i: ; preds = %10
  %18 = load i64, ptr %13, align 8, !tbaa !182
  %19 = add i64 %18, 1
  call void @_ZdlPvm(ptr noundef %12, i64 noundef %19) #26
  br label %_ZNSt7__cxx1112basic_stringIcSt11char_traitsIcESaIcEED2Ev.exit

_ZNSt7__cxx1112basic_stringIcSt11char_traitsIcESaIcEED2Ev.exit: ; preds = %_ZNKSt7__cxx1112basic_stringIcSt11char_traitsIcESaIcEE11_M_is_localEv.exit.i.i, %_ZNKSt7__cxx1112basic_stringIcSt11char_traitsIcESaIcEE11_M_is_localEv.exit.thread.i.i
  call void @llvm.lifetime.end.p0(i64 1, ptr nonnull %4) #27
  call void @llvm.lifetime.end.p0(i64 32, ptr nonnull %3) #27
  resume { ptr, i32 } %11

switch.lookup:                                    ; preds = %2
  %narrow = mul nuw nsw i32 %1, 24
  %narrow17 = mul nuw nsw i32 %1, 24
  %20 = zext nneg i32 %1 to i64
  %switch.gep = getelementptr inbounds nuw [4 x i64], ptr @switch.table._ZN4Luau16OverloadResolver7indexofENS0_8AnalysisE, i64 0, i64 %20
  %switch.load = load i64, ptr %switch.gep, align 8
  %21 = zext nneg i32 %narrow to i64
  %22 = getelementptr inbounds nuw i8, ptr %0, i64 %21
  %23 = getelementptr inbounds nuw i8, ptr %22, i64 288
  %24 = zext nneg i32 %narrow17 to i64
  %25 = getelementptr inbounds nuw i8, ptr %0, i64 %24
  %26 = getelementptr inbounds nuw i8, ptr %25, i64 296
  %27 = load ptr, ptr %26, align 8, !tbaa !15
  %28 = load ptr, ptr %23, align 8, !tbaa !15
  %29 = ptrtoint ptr %27 to i64
  %30 = ptrtoint ptr %28 to i64
  %31 = sub i64 %29, %30
  %32 = ashr exact i64 %31, %switch.load
  ret i64 %32
}